; ModuleID = 'source-C-CXX/46/2950.cpp'
source_filename = "source-C-CXX/46/2950.cpp"
target datalayout = "e-m:e-p270:32:32-p271:32:32-p272:64:64-i64:64-f80:128-n8:16:32:64-S128"
target triple = "x86_64-pc-linux-gnu"

%"class.std::ios_base::Init" = type { i8 }
%"class.std::basic_istream" = type { i32 (...)**, i64, %"class.std::basic_ios" }
%"class.std::basic_ios" = type { %"class.std::ios_base", %"class.std::basic_ostream"*, i8, i8, %"class.std::basic_streambuf"*, %"class.std::ctype"*, %"class.std::num_put"*, %"class.std::num_get"* }
%"class.std::ios_base" = type { i32 (...)**, i64, i64, i32, i32, i32, %"struct.std::ios_base::_Callback_list"*, %"struct.std::ios_base::_Words", [8 x %"struct.std::ios_base::_Words"], i32, %"struct.std::ios_base::_Words"*, %"class.std::locale" }
%"struct.std::ios_base::_Callback_list" = type { %"struct.std::ios_base::_Callback_list"*, void (i32, %"class.std::ios_base"*, i32)*, i32, i32 }
%"struct.std::ios_base::_Words" = type { i8*, i64 }
%"class.std::locale" = type { %"class.std::locale::_Impl"* }
%"class.std::locale::_Impl" = type { i32, %"class.std::locale::facet"**, i64, %"class.std::locale::facet"**, i8** }
%"class.std::locale::facet" = type <{ i32 (...)**, i32, [4 x i8] }>
%"class.std::basic_ostream" = type { i32 (...)**, %"class.std::basic_ios" }
%"class.std::basic_streambuf" = type { i32 (...)**, i8*, i8*, i8*, i8*, i8*, i8*, %"class.std::locale" }
%"class.std::ctype" = type <{ %"class.std::locale::facet.base", [4 x i8], %struct.__locale_struct*, i8, [7 x i8], i32*, i32*, i16*, i8, [256 x i8], [256 x i8], i8, [6 x i8] }>
%"class.std::locale::facet.base" = type <{ i32 (...)**, i32 }>
%struct.__locale_struct = type { [13 x %struct.__locale_data*], i16*, i32*, i32*, [13 x i8*] }
%struct.__locale_data = type opaque
%"class.std::num_put" = type { %"class.std::locale::facet.base", [4 x i8] }
%"class.std::num_get" = type { %"class.std::locale::facet.base", [4 x i8] }

@_ZStL8__ioinit = internal global %"class.std::ios_base::Init" zeroinitializer, align 1
@__dso_handle = external hidden global i8
@_ZSt3cin = external global %"class.std::basic_istream", align 8
@_ZSt4cout = external global %"class.std::basic_ostream", align 8
@llvm.global_ctors = appending global [1 x { i32, void ()*, i8* }] [{ i32, void ()*, i8* } { i32 65535, void ()* @_GLOBAL__sub_I_2950.cpp, i8* null }]

declare void @_ZNSt8ios_base4InitC1Ev(%"class.std::ios_base::Init"* nonnull align 1 dereferenceable(1)) unnamed_addr #0

; Function Attrs: nounwind
declare void @_ZNSt8ios_base4InitD1Ev(%"class.std::ios_base::Init"* nonnull align 1 dereferenceable(1)) unnamed_addr #1

; Function Attrs: nofree nounwind
declare i32 @__cxa_atexit(void (i8*)*, i8*, i8*) local_unnamed_addr #2

; Function Attrs: mustprogress nofree norecurse nosync nounwind readnone sspstrong uwtable willreturn
define dso_local void @_Z4swapPiS_(i32* nocapture %0, i32* nocapture %1) local_unnamed_addr #3 {
  ret void
}

; Function Attrs: argmemonly mustprogress nofree nosync nounwind willreturn
declare void @llvm.lifetime.start.p0i8(i64 immarg, i8* nocapture) #4

; Function Attrs: argmemonly mustprogress nofree nosync nounwind willreturn
declare void @llvm.lifetime.end.p0i8(i64 immarg, i8* nocapture) #4

; Function Attrs: mustprogress norecurse sspstrong uwtable
define dso_local i32 @main() local_unnamed_addr #5 {
  %1 = alloca i8, align 1
  %2 = alloca i32, align 4
  %3 = alloca [150 x i32], align 16
  %4 = bitcast i32* %2 to i8*
  call void @llvm.lifetime.start.p0i8(i64 4, i8* nonnull %4) #7
  %5 = bitcast [150 x i32]* %3 to i8*
  call void @llvm.lifetime.start.p0i8(i64 600, i8* nonnull %5) #7
  %6 = call nonnull align 8 dereferenceable(16) %"class.std::basic_istream"* @_ZNSirsERi(%"class.std::basic_istream"* nonnull align 8 dereferenceable(16) @_ZSt3cin, i32* nonnull align 4 dereferenceable(4) %2)
  %7 = load i32, i32* %2, align 4, !tbaa !5
  %8 = icmp sgt i32 %7, 0
  br i1 %8, label %20, label %37

9:                                                ; preds = %20
  %10 = sext i32 %25 to i64
  %11 = getelementptr inbounds [150 x i32], [150 x i32]* %3, i64 0, i64 %10
  %12 = icmp sgt i32 %25, 1
  br i1 %12, label %13, label %37

13:                                               ; preds = %9
  %14 = lshr i32 %25, 1
  %15 = zext i32 %14 to i64
  %16 = and i64 %15, 1
  %17 = icmp eq i32 %14, 1
  br i1 %17, label %28, label %18

18:                                               ; preds = %13
  %19 = and i64 %15, 2147483646
  br label %43

20:                                               ; preds = %0, %20
  %21 = phi i64 [ %24, %20 ], [ 0, %0 ]
  %22 = getelementptr inbounds [150 x i32], [150 x i32]* %3, i64 0, i64 %21
  %23 = call nonnull align 8 dereferenceable(16) %"class.std::basic_istream"* @_ZNSirsERi(%"class.std::basic_istream"* nonnull align 8 dereferenceable(16) @_ZSt3cin, i32* nonnull align 4 dereferenceable(4) %22)
  %24 = add nuw nsw i64 %21, 1
  %25 = load i32, i32* %2, align 4, !tbaa !5
  %26 = sext i32 %25 to i64
  %27 = icmp slt i64 %24, %26
  br i1 %27, label %20, label %9, !llvm.loop !9

28:                                               ; preds = %43, %13
  %29 = phi i64 [ 0, %13 ], [ %57, %43 ]
  %30 = icmp eq i64 %16, 0
  br i1 %30, label %37, label %31

31:                                               ; preds = %28
  %32 = getelementptr inbounds [150 x i32], [150 x i32]* %3, i64 0, i64 %29
  %33 = xor i64 %29, -1
  %34 = getelementptr inbounds i32, i32* %11, i64 %33
  %35 = load i32, i32* %32, align 4, !tbaa !5
  %36 = load i32, i32* %34, align 4, !tbaa !5
  store i32 %36, i32* %32, align 4, !tbaa !5
  store i32 %35, i32* %34, align 4, !tbaa !5
  br label %37

37:                                               ; preds = %31, %28, %0, %9
  %38 = getelementptr inbounds [150 x i32], [150 x i32]* %3, i64 0, i64 0
  %39 = load i32, i32* %38, align 16, !tbaa !5
  %40 = call nonnull align 8 dereferenceable(8) %"class.std::basic_ostream"* @_ZNSolsEi(%"class.std::basic_ostream"* nonnull align 8 dereferenceable(8) @_ZSt4cout, i32 %39)
  %41 = load i32, i32* %2, align 4, !tbaa !5
  %42 = icmp sgt i32 %41, 1
  br i1 %42, label %61, label %60

43:                                               ; preds = %43, %18
  %44 = phi i64 [ 0, %18 ], [ %57, %43 ]
  %45 = phi i64 [ %19, %18 ], [ %58, %43 ]
  %46 = getelementptr inbounds [150 x i32], [150 x i32]* %3, i64 0, i64 %44
  %47 = xor i64 %44, -1
  %48 = getelementptr inbounds i32, i32* %11, i64 %47
  %49 = load i32, i32* %46, align 8, !tbaa !5
  %50 = load i32, i32* %48, align 4, !tbaa !5
  store i32 %50, i32* %46, align 8, !tbaa !5
  store i32 %49, i32* %48, align 4, !tbaa !5
  %51 = or i64 %44, 1
  %52 = getelementptr inbounds [150 x i32], [150 x i32]* %3, i64 0, i64 %51
  %53 = sub nuw nsw i64 -2, %44
  %54 = getelementptr inbounds i32, i32* %11, i64 %53
  %55 = load i32, i32* %52, align 4, !tbaa !5
  %56 = load i32, i32* %54, align 4, !tbaa !5
  store i32 %56, i32* %52, align 4, !tbaa !5
  store i32 %55, i32* %54, align 4, !tbaa !5
  %57 = add nuw nsw i64 %44, 2
  %58 = add i64 %45, -2
  %59 = icmp eq i64 %58, 0
  br i1 %59, label %28, label %43, !llvm.loop !11

60:                                               ; preds = %61, %37
  call void @llvm.lifetime.end.p0i8(i64 600, i8* nonnull %5) #7
  call void @llvm.lifetime.end.p0i8(i64 4, i8* nonnull %4) #7
  ret i32 0

61:                                               ; preds = %37, %61
  %62 = phi i64 [ %67, %61 ], [ 1, %37 ]
  call void @llvm.lifetime.start.p0i8(i64 1, i8* nonnull %1)
  store i8 32, i8* %1, align 1, !tbaa !12
  %63 = call nonnull align 8 dereferenceable(8) %"class.std::basic_ostream"* @_ZSt16__ostream_insertIcSt11char_traitsIcEERSt13basic_ostreamIT_T0_ES6_PKS3_l(%"class.std::basic_ostream"* nonnull align 8 dereferenceable(8) @_ZSt4cout, i8* nonnull %1, i64 1)
  call void @llvm.lifetime.end.p0i8(i64 1, i8* nonnull %1)
  %64 = getelementptr inbounds [150 x i32], [150 x i32]* %3, i64 0, i64 %62
  %65 = load i32, i32* %64, align 4, !tbaa !5
  %66 = call nonnull align 8 dereferenceable(8) %"class.std::basic_ostream"* @_ZNSolsEi(%"class.std::basic_ostream"* nonnull align 8 dereferenceable(8) %63, i32 %65)
  %67 = add nuw nsw i64 %62, 1
  %68 = load i32, i32* %2, align 4, !tbaa !5
  %69 = sext i32 %68 to i64
  %70 = icmp slt i64 %67, %69
  br i1 %70, label %61, label %60, !llvm.loop !13
}

declare nonnull align 8 dereferenceable(16) %"class.std::basic_istream"* @_ZNSirsERi(%"class.std::basic_istream"* nonnull align 8 dereferenceable(16), i32* nonnull align 4 dereferenceable(4)) local_unnamed_addr #0

declare nonnull align 8 dereferenceable(8) %"class.std::basic_ostream"* @_ZNSolsEi(%"class.std::basic_ostream"* nonnull align 8 dereferenceable(8), i32) local_unnamed_addr #0

declare nonnull align 8 dereferenceable(8) %"class.std::basic_ostream"* @_ZSt16__ostream_insertIcSt11char_traitsIcEERSt13basic_ostreamIT_T0_ES6_PKS3_l(%"class.std::basic_ostream"* nonnull align 8 dereferenceable(8), i8*, i64) local_unnamed_addr #0

; Function Attrs: sspstrong uwtable
define internal void @_GLOBAL__sub_I_2950.cpp() #6 section ".text.startup" {
  tail call void @_ZNSt8ios_base4InitC1Ev(%"class.std::ios_base::Init"* nonnull align 1 dereferenceable(1) @_ZStL8__ioinit)
  %1 = tail call i32 @__cxa_atexit(void (i8*)* bitcast (void (%"class.std::ios_base::Init"*)* @_ZNSt8ios_base4InitD1Ev to void (i8*)*), i8* getelementptr inbounds (%"class.std::ios_base::Init", %"class.std::ios_base::Init"* @_ZStL8__ioinit, i64 0, i32 0), i8* nonnull @__dso_handle) #7
  ret void
}


!llvm.module.flags = !{!0, !1, !2, !3}
!llvm.ident = !{!4}

!0 = !{i32 1, !"wchar_size", i32 4}
!1 = !{i32 7, !"PIC Level", i32 2}
!2 = !{i32 7, !"PIE Level", i32 2}
!3 = !{i32 7, !"uwtable", i32 1}
!4 = !{!"clang version 13.0.0"}
!5 = !{!6, !6, i64 0}
!6 = !{!"int", !7, i64 0}
!7 = !{!"omnipotent char", !8, i64 0}
!8 = !{!"Simple C++ TBAA"}
!9 = distinct !{!9, !10}
!10 = !{!"llvm.loop.mustprogress"}
!11 = distinct !{!11, !10}
!12 = !{!7, !7, i64 0}
!13 = distinct !{!13, !10}
